; Function Attrs: nounwind uwtable
define dso_local i64 @pg_walfile_name(ptr noundef readonly captures(none) %0) local_unnamed_addr #0 {
  %2 = alloca [64 x i8], align 16
  %3 = getelementptr inbounds nuw i8, ptr %0, i64 32
  %4 = load i64, ptr %3, align 8
  call void @llvm.lifetime.start.p0(i64 64, ptr nonnull %2) #9
  %5 = tail call zeroext i1 @RecoveryInProgress() #9
  br i1 %5, label %6, label %11

6:                                                ; preds = %1
  %7 = tail call zeroext i1 @errstart_cold(i32 noundef 21, ptr noundef null) #10
  tail call void @llvm.assume(i1 %7)
  %8 = tail call i32 @errcode(i32 noundef 325) #9
  %9 = tail call i32 (ptr, ...) @errmsg(ptr noundef nonnull @.str.6) #9
  %10 = tail call i32 (ptr, ...) @errhint(ptr noundef nonnull @.str.8, ptr noundef nonnull @.str.17) #9
  tail call void @errfinish(ptr noundef nonnull @.str.1, i32 noundef 449, ptr noundef nonnull @__func__.pg_walfile_name) #9
  unreachable

11:                                               ; preds = %1
  %12 = load i32, ptr @wal_segment_size, align 4
  %13 = sext i32 %12 to i64
  %14 = udiv i64 %4, %13
  %15 = tail call i32 @GetWALInsertionTimeLine() #9
  %16 = load i32, ptr @wal_segment_size, align 4
  %17 = sext i32 %16 to i64
  %18 = udiv i64 4294967296, %17
  %19 = udiv i64 %14, %18
  %20 = trunc i64 %19 to i32
  %21 = urem i64 %14, %18
  %22 = trunc nuw i64 %21 to i32
  %23 = call i32 (ptr, i64, ptr, ...) @pg_snprintf(ptr noundef nonnull %2, i64 noundef 64, ptr noundef nonnull @.str.39, i32 noundef %15, i32 noundef %20, i32 noundef %22) #9
  %24 = call ptr @cstring_to_text(ptr noundef nonnull %2) #9
  %25 = ptrtoint ptr %24 to i64
  call void @llvm.lifetime.end.p0(i64 64, ptr nonnull %2) #9
  ret i64 %25
}